; Function Attrs: uwtable
define hidden i32 @_ZThn48_N3fpa6solver11internalizeEP4exprbb(ptr noundef nonnull %this, ptr noundef %e, i1 noundef zeroext %sign, i1 noundef zeroext %root) unnamed_addr #9 align 2 {
entry:
  %m.i = getelementptr inbounds i8, ptr %this, i64 24
  %0 = load ptr, ptr %m.i, align 8
  %call.i = tail call noundef zeroext i1 @_ZN3euf15th_internalizer9visit_recER11ast_managerP4exprbb(ptr noundef nonnull align 8 dereferenceable(24) %this, ptr noundef nonnull align 8 dereferenceable(976) %0, ptr noundef %e, i1 noundef zeroext %sign, i1 noundef zeroext %root)
  br i1 %call.i, label %if.end.i, label %if.then.i

if.then.i:                                        ; preds = %entry
  %.b = load i1, ptr @_ZN3satL12null_literalE.0, align 4
  %1 = select i1 %.b, i32 -2, i32 0
  br label %_ZN3fpa6solver11internalizeEP4exprbb.exit

if.end.i:                                         ; preds = %entry
  %2 = getelementptr inbounds i8, ptr %this, i64 -48
  %call4.i = tail call i32 @_ZNK3euf13th_euf_solver12expr2literalEP4expr(ptr noundef nonnull align 8 dereferenceable(108) %2, ptr noundef %e)
  %xor.i.i = zext i1 %sign to i32
  %spec.select.i = xor i32 %call4.i, %xor.i.i
  br label %_ZN3fpa6solver11internalizeEP4exprbb.exit

_ZN3fpa6solver11internalizeEP4exprbb.exit:        ; preds = %if.then.i, %if.end.i
  %retval.sroa.0.0.i = phi i32 [ %1, %if.then.i ], [ %spec.select.i, %if.end.i ]
  ret i32 %retval.sroa.0.0.i
}